Archive member included to satisfy reference by file (symbol)

/mnt/e/NeoOS/toolchain/i686-elf/lib/gcc/i686-elf/15.1.0/libgcc.a(_udivdi3.o)
                              /mnt/e/NeoOS/build/stage2/c/stdio.obj (__udivdi3)
/mnt/e/NeoOS/toolchain/i686-elf/lib/gcc/i686-elf/15.1.0/libgcc.a(_umoddi3.o)
                              /mnt/e/NeoOS/build/stage2/c/stdio.obj (__umoddi3)

There are no discarded input sections

Memory Configuration

Name             Origin             Length             Attributes
*default*        0x00000000         0xffffffff

Linker script and memory map

LOAD /mnt/e/NeoOS/build/stage2/asm/stage2.obj
LOAD /mnt/e/NeoOS/build/stage2/asm/x86.obj
LOAD /mnt/e/NeoOS/build/stage2/c/disk.obj
LOAD /mnt/e/NeoOS/build/stage2/c/main.obj
LOAD /mnt/e/NeoOS/build/stage2/c/stdio.obj
LOAD /mnt/e/NeoOS/toolchain/i686-elf/lib/gcc/i686-elf/15.1.0/libgcc.a
                0x00000500                        phys = 0x500
                0x00000500                        . = phys

.entry          0x00000500       0xc3
                0x00000500                        __entry_start = .
 *(.entry)
 .entry         0x00000500       0xc3 /mnt/e/NeoOS/build/stage2/asm/stage2.obj
                0x00000500                entry

.text           0x000005d0      0xf56
                0x000005d0                        __text_start = .
 *(.text)
 .text          0x000005d0      0x19d /mnt/e/NeoOS/build/stage2/asm/x86.obj
                0x000005d0                x86_outb
                0x000005db                x86_inb
                0x000005e4                x86_Disk_GetDriveParams
                0x000006a7                x86_Disk_Reset
                0x000006f3                x86_Disk_Read
 .text          0x0000076d      0x230 /mnt/e/NeoOS/build/stage2/c/disk.obj
                0x0000076d                DISK_Initialize
                0x00000874                DISK_LBA2CHS
                0x00000901                DISK_ReadSectors
 .text          0x0000099d       0x55 /mnt/e/NeoOS/build/stage2/c/main.obj
                0x0000099d                start
 .text          0x000009f2      0x8d9 /mnt/e/NeoOS/build/stage2/c/stdio.obj
                0x000009f2                putchr
                0x00000a21                putcolor
                0x00000a53                getchr
                0x00000a75                getcolor
                0x00000a9a                clrscr
                0x00000b28                setCursor
                0x00000b99                scrollback
                0x00000c87                putc
                0x00000d97                puts
                0x00000dc6                printf_unsigned
                0x00000e6a                printf_signed
                0x00000e93                printf
                0x00001232                print_buffer
 *fill*         0x000012cb        0x5 
 .text          0x000012d0      0x11a /mnt/e/NeoOS/toolchain/i686-elf/lib/gcc/i686-elf/15.1.0/libgcc.a(_udivdi3.o)
                0x000012d0                __udivdi3
 *fill*         0x000013ea        0x6 
 .text          0x000013f0      0x136 /mnt/e/NeoOS/toolchain/i686-elf/lib/gcc/i686-elf/15.1.0/libgcc.a(_umoddi3.o)
                0x000013f0                __umoddi3

.data           0x00001528        0x8
                0x00001528                        __data_start = .
 *(.data)
 .data          0x00001528        0x0 /mnt/e/NeoOS/build/stage2/c/disk.obj
 .data          0x00001528        0x4 /mnt/e/NeoOS/build/stage2/c/main.obj
                0x00001528                g_data
 .data          0x0000152c        0x4 /mnt/e/NeoOS/build/stage2/c/stdio.obj
                0x0000152c                g_ScreenBuffer
 .data          0x00001530        0x0 /mnt/e/NeoOS/toolchain/i686-elf/lib/gcc/i686-elf/15.1.0/libgcc.a(_udivdi3.o)
 .data          0x00001530        0x0 /mnt/e/NeoOS/toolchain/i686-elf/lib/gcc/i686-elf/15.1.0/libgcc.a(_umoddi3.o)

.rodata         0x00001530       0xab
                0x00001530                        __rodata_start = .
 *(.rodata)
 .rodata        0x00001530       0x5d /mnt/e/NeoOS/build/stage2/c/disk.obj
 .rodata        0x0000158d       0x2e /mnt/e/NeoOS/build/stage2/c/main.obj
 *fill*         0x000015bb        0x1 
 .rodata        0x000015bc       0x1f /mnt/e/NeoOS/build/stage2/c/stdio.obj
                0x000015bc                SCREEN_WIDTH
                0x000015c0                SCREEN_HEIGHT
                0x000015c4                DEFAULT_COLOR
                0x000015c8                g_HexCharacters

.eh_frame       0x000015dc       0xd8
 .eh_frame      0x000015dc       0x64 /mnt/e/NeoOS/toolchain/i686-elf/lib/gcc/i686-elf/15.1.0/libgcc.a(_udivdi3.o)
 .eh_frame      0x00001640       0x74 /mnt/e/NeoOS/toolchain/i686-elf/lib/gcc/i686-elf/15.1.0/libgcc.a(_umoddi3.o)

.bss            0x000016b4        0x8
                0x000016b4                        __bss_start = .
 *(.bss)
 .bss           0x000016b4        0x0 /mnt/e/NeoOS/build/stage2/c/disk.obj
 .bss           0x000016b4        0x0 /mnt/e/NeoOS/build/stage2/c/main.obj
 .bss           0x000016b4        0x8 /mnt/e/NeoOS/build/stage2/c/stdio.obj
                0x000016b4                g_ScreenX
                0x000016b8                g_ScreenY
 .bss           0x000016bc        0x0 /mnt/e/NeoOS/toolchain/i686-elf/lib/gcc/i686-elf/15.1.0/libgcc.a(_udivdi3.o)
 .bss           0x000016bc        0x0 /mnt/e/NeoOS/toolchain/i686-elf/lib/gcc/i686-elf/15.1.0/libgcc.a(_umoddi3.o)
                0x000016bc                        __end = .
OUTPUT(/mnt/e/NeoOS/build/stage2.bin binary)

.debug_info     0x00000000     0x1017
 .debug_info    0x00000000      0x2d8 /mnt/e/NeoOS/build/stage2/c/disk.obj
 .debug_info    0x000002d8      0x172 /mnt/e/NeoOS/build/stage2/c/main.obj
 .debug_info    0x0000044a      0x54c /mnt/e/NeoOS/build/stage2/c/stdio.obj
 .debug_info    0x00000996      0x331 /mnt/e/NeoOS/toolchain/i686-elf/lib/gcc/i686-elf/15.1.0/libgcc.a(_udivdi3.o)
 .debug_info    0x00000cc7      0x350 /mnt/e/NeoOS/toolchain/i686-elf/lib/gcc/i686-elf/15.1.0/libgcc.a(_umoddi3.o)

.debug_abbrev   0x00000000      0x74c
 .debug_abbrev  0x00000000      0x160 /mnt/e/NeoOS/build/stage2/c/disk.obj
 .debug_abbrev  0x00000160      0x12c /mnt/e/NeoOS/build/stage2/c/main.obj
 .debug_abbrev  0x0000028c      0x1f6 /mnt/e/NeoOS/build/stage2/c/stdio.obj
 .debug_abbrev  0x00000482      0x15a /mnt/e/NeoOS/toolchain/i686-elf/lib/gcc/i686-elf/15.1.0/libgcc.a(_udivdi3.o)
 .debug_abbrev  0x000005dc      0x170 /mnt/e/NeoOS/toolchain/i686-elf/lib/gcc/i686-elf/15.1.0/libgcc.a(_umoddi3.o)

.debug_aranges  0x00000000       0xa0
 .debug_aranges
                0x00000000       0x20 /mnt/e/NeoOS/build/stage2/c/disk.obj
 .debug_aranges
                0x00000020       0x20 /mnt/e/NeoOS/build/stage2/c/main.obj
 .debug_aranges
                0x00000040       0x20 /mnt/e/NeoOS/build/stage2/c/stdio.obj
 .debug_aranges
                0x00000060       0x20 /mnt/e/NeoOS/toolchain/i686-elf/lib/gcc/i686-elf/15.1.0/libgcc.a(_udivdi3.o)
 .debug_aranges
                0x00000080       0x20 /mnt/e/NeoOS/toolchain/i686-elf/lib/gcc/i686-elf/15.1.0/libgcc.a(_umoddi3.o)

.debug_line     0x00000000      0x864
 .debug_line    0x00000000      0x105 /mnt/e/NeoOS/build/stage2/c/disk.obj
 .debug_line    0x00000105       0x76 /mnt/e/NeoOS/build/stage2/c/main.obj
 .debug_line    0x0000017b      0x39e /mnt/e/NeoOS/build/stage2/c/stdio.obj
 .debug_line    0x00000519      0x17b /mnt/e/NeoOS/toolchain/i686-elf/lib/gcc/i686-elf/15.1.0/libgcc.a(_udivdi3.o)
 .debug_line    0x00000694      0x1d0 /mnt/e/NeoOS/toolchain/i686-elf/lib/gcc/i686-elf/15.1.0/libgcc.a(_umoddi3.o)

.debug_str      0x00000000      0x965
 .debug_str     0x00000000      0x1d6 /mnt/e/NeoOS/build/stage2/c/disk.obj
 .debug_str     0x000001d6      0x142 /mnt/e/NeoOS/build/stage2/c/main.obj
 .debug_str     0x00000318      0x253 /mnt/e/NeoOS/build/stage2/c/stdio.obj
 .debug_str     0x0000056b      0x1fd /mnt/e/NeoOS/toolchain/i686-elf/lib/gcc/i686-elf/15.1.0/libgcc.a(_udivdi3.o)
 .debug_str     0x00000768      0x1fd /mnt/e/NeoOS/toolchain/i686-elf/lib/gcc/i686-elf/15.1.0/libgcc.a(_umoddi3.o)

.debug_line_str
                0x00000000      0x3a6
 .debug_line_str
                0x00000000       0xb1 /mnt/e/NeoOS/build/stage2/c/disk.obj
 .debug_line_str
                0x000000b1       0xab /mnt/e/NeoOS/build/stage2/c/main.obj
 .debug_line_str
                0x0000015c       0xae /mnt/e/NeoOS/build/stage2/c/stdio.obj
 .debug_line_str
                0x0000020a       0xce /mnt/e/NeoOS/toolchain/i686-elf/lib/gcc/i686-elf/15.1.0/libgcc.a(_udivdi3.o)
 .debug_line_str
                0x000002d8       0xce /mnt/e/NeoOS/toolchain/i686-elf/lib/gcc/i686-elf/15.1.0/libgcc.a(_umoddi3.o)

.comment        0x00000000       0x5f
 .comment       0x00000000       0x13 /mnt/e/NeoOS/build/stage2/c/disk.obj
 .comment       0x00000013       0x13 /mnt/e/NeoOS/build/stage2/c/main.obj
 .comment       0x00000026       0x13 /mnt/e/NeoOS/build/stage2/c/stdio.obj
 .comment       0x00000039       0x13 /mnt/e/NeoOS/toolchain/i686-elf/lib/gcc/i686-elf/15.1.0/libgcc.a(_udivdi3.o)
 .comment       0x0000004c       0x13 /mnt/e/NeoOS/toolchain/i686-elf/lib/gcc/i686-elf/15.1.0/libgcc.a(_umoddi3.o)

.debug_frame    0x00000000      0x264
 .debug_frame   0x00000000       0x80 /mnt/e/NeoOS/build/stage2/c/disk.obj
 .debug_frame   0x00000080       0x2c /mnt/e/NeoOS/build/stage2/c/main.obj
 .debug_frame   0x000000ac      0x1b8 /mnt/e/NeoOS/build/stage2/c/stdio.obj

.debug_loclists
                0x00000000      0x940
 .debug_loclists
                0x00000000      0x4de /mnt/e/NeoOS/toolchain/i686-elf/lib/gcc/i686-elf/15.1.0/libgcc.a(_udivdi3.o)
 .debug_loclists
                0x000004de      0x462 /mnt/e/NeoOS/toolchain/i686-elf/lib/gcc/i686-elf/15.1.0/libgcc.a(_umoddi3.o)

.debug_rnglists
                0x00000000       0x49
 .debug_rnglists
                0x00000000       0x2a /mnt/e/NeoOS/toolchain/i686-elf/lib/gcc/i686-elf/15.1.0/libgcc.a(_udivdi3.o)
 .debug_rnglists
                0x0000002a       0x1f /mnt/e/NeoOS/toolchain/i686-elf/lib/gcc/i686-elf/15.1.0/libgcc.a(_umoddi3.o)
