Open Watcom Linker Version 2.0 beta Mar  1 2025 02:26:26 (64-bit)
Copyright (c) 2002-2025 The Open Watcom Contributors. All Rights Reserved.
Portions Copyright (c) 1985-2002 Sybase, Inc. All Rights Reserved.
Created on:       25/08/04 21:04:01
Executable Image: /home/dani23/NeoOS_new/build/stage2.bin
creating a RAW Binary Image executable


                        +------------+
                        |   Groups   |
                        +------------+

Group                           Address              Size
=====                           =======              ====

DGROUP                          0000186c             00000200



                        +--------------+
                        |   Segments   |
                        +--------------+

Segment                Class          Group          Address         Size
=======                =====          =====          =======         ====

_ENTRY                 CODE           AUTO           00000000        00000013
_TEXT                  CODE           AUTO           00000013        00001859
CONST                  DATA           DGROUP         0000186c        000001e1
CONST2                 DATA           DGROUP         00001a4e        00000011
_DATA                  DATA           DGROUP         00001a60        00000004
_BSS                   BSS            DGROUP         00001a64        00000008


                        +----------------+
                        |   Memory Map   |
                        +----------------+

* = unreferenced symbol
+ = symbol only referenced locally

Address        Symbol
=======        ======

Module: /home/dani23/NeoOS_new/build/stage2/asm/stage2.obj(stage2.asm)
00000000       entry
Module: /home/dani23/NeoOS_new/build/stage2/asm/x86.obj(x86.asm)
00000013       __U4D
0000003a       __U4M
00000054       _x86_div64_32
00000083       _x86_TTY_PutChar
00000096       _x86_Disk_Reset
000000ab       _x86_Disk_Read
000000e2       _x86_Disk_GetDriveParams
Module: /home/dani23/NeoOS_new/build/stage2/c/ctype.obj(/home/dani23/NeoOS_new/src/boot/stage2/ctype.c)
00000126+      isLower_
00000164       toUpper_
Module: /home/dani23/NeoOS_new/build/stage2/c/disk.obj(/home/dani23/NeoOS_new/src/boot/stage2/disk.c)
000001ac       DISK_Initialize_
00000222+      DISK_LBA2CHS_
000002d5       DISK_ReadSectors_
Module: /home/dani23/NeoOS_new/build/stage2/c/fat.obj(/home/dani23/NeoOS_new/src/boot/stage2/fat.c)
00000372+      FAT_ClusterToLba_
000003c8+      FAT_ReadBootSector_
000003fc+      FAT_ReadFat_
00000440       FAT_Initialize_
00000685+      FAT_OpenEntry_
00000825+      FAT_NextCluster_
000008ae+      FAT_Read_
00000c02       FAT_ReadEntry_
00000c5b       FAT_Close_
00000cd2+      FAT_FindFile_
00000e0e       FAT_Open_
Module: /home/dani23/NeoOS_new/build/stage2/c/main.obj(/home/dani23/NeoOS_new/src/boot/stage2/main.c)
00000f80       _cstart_
Module: /home/dani23/NeoOS_new/build/stage2/c/memory.obj(/home/dani23/NeoOS_new/src/boot/stage2/memory.c)
00001055       memcpy_
000010c9       memset_
00001128       memcmp_
Module: /home/dani23/NeoOS_new/build/stage2/c/stdio.obj(/home/dani23/NeoOS_new/src/boot/stage2/stdio.c)
000011a1       putc_
000011c8+      puts_
000011ff       _printf
0000145b+      printf_number_
00001a4e+      _g_HexCharacters
Module: /home/dani23/NeoOS_new/build/stage2/c/string.obj(/home/dani23/NeoOS_new/src/boot/stage2/string.c)
000016cf       strchr_
0000172a+      strcpy_
00001798       strlen_
Module: /home/dani23/NeoOS_new/build/stage2/c/utils.obj(/home/dani23/NeoOS_new/src/boot/stage2/utils.c)
000017d3+      align_


                        +---------------------+
                        |   Module Segments   |
                        +---------------------+

! = 32-bit segment
c = initialized communal data

Module          Segment               Class           Address         Size
======          =======               =====           =======         ====

stage2.asm      _ENTRY                CODE           00000000         00000013
x86.asm         _TEXT                 CODE           00000013         00000113
/home/dani23/NeoOS_new/src/boot/stage2/ctype.c
                _TEXT                 CODE           00000126         00000086
                CONST                 DATA           0000186c         00000000
                CONST2                DATA           00001a4e         00000000
                _DATA                 DATA           00001a60         00000000
/home/dani23/NeoOS_new/src/boot/stage2/disk.c
                _TEXT                 CODE           000001ac         000001c6
                CONST                 DATA           0000186c         00000000
                CONST2                DATA           00001a4e         00000000
                _DATA                 DATA           00001a60         00000000
/home/dani23/NeoOS_new/src/boot/stage2/fat.c
                _TEXT                 CODE           00000372         00000c0e
                CONST                 DATA           0000186c         000001a3
                CONST2                DATA           00001a4e         00000000
                _DATA                 DATA           00001a60         00000004
                _BSS                  BSS            00001a64         00000008
/home/dani23/NeoOS_new/src/boot/stage2/main.c
                _TEXT                 CODE           00000f80         000000d5
                CONST                 DATA           00001a10         0000003d
                CONST2                DATA           00001a4e         00000000
                _DATA                 DATA           00001a64         00000000
/home/dani23/NeoOS_new/src/boot/stage2/memory.c
                _TEXT                 CODE           00001055         0000014c
                CONST                 DATA           00001a4e         00000000
                CONST2                DATA           00001a4e         00000000
                _DATA                 DATA           00001a64         00000000
/home/dani23/NeoOS_new/src/boot/stage2/stdio.c
                _TEXT                 CODE           000011a1         0000052e
                CONST                 DATA           00001a4e         00000000
                CONST2                DATA           00001a4e         00000011
                _DATA                 DATA           00001a64         00000000
/home/dani23/NeoOS_new/src/boot/stage2/string.c
                _TEXT                 CODE           000016cf         00000104
                CONST                 DATA           00001a4e         00000000
                CONST2                DATA           00001a60         00000000
                _DATA                 DATA           00001a64         00000000
/home/dani23/NeoOS_new/src/boot/stage2/utils.c
                _TEXT                 CODE           000017d3         00000099
                CONST                 DATA           00001a4e         00000000
                CONST2                DATA           00001a60         00000000
                _DATA                 DATA           00001a64         00000000
Warning! W1014: stack segment not found


                        +-----------------------+
                        |   Linker Statistics   |
                        +-----------------------+

Stack size:  0200 (512.)
Memory size:  1a6c (6764.)
Entry point address: 00000000
Link time: 00:00.39
